; Function Attrs: nounwind uwtable
define hidden void @av1_inverse_transform_block(ptr nocapture noundef readonly %0, ptr noundef %1, i32 noundef %2, i8 noundef zeroext %3, i8 noundef zeroext %4, ptr noundef %5, i32 noundef %6, i32 noundef %7, i32 noundef %8) local_unnamed_addr #1 {
  %10 = alloca [4096 x i16], align 32
  %11 = alloca %struct.txfm_param, align 4
  %.not = icmp eq i32 %7, 0
  br i1 %.not, label %81, label %12

12:                                               ; preds = %9
  store i8 %3, ptr %11, align 4
  %13 = getelementptr inbounds nuw i8, ptr %11, i64 1
  store i8 %4, ptr %13, align 1
  %14 = getelementptr inbounds nuw i8, ptr %11, i64 20
  store i32 %7, ptr %14, align 4
  %15 = getelementptr inbounds nuw i8, ptr %0, i64 10692
  %16 = getelementptr inbounds nuw i8, ptr %0, i64 7864
  %17 = load ptr, ptr %16, align 8
  %18 = load ptr, ptr %17, align 8
  %19 = getelementptr inbounds nuw i8, ptr %18, i64 175
  %20 = load i16, ptr %19, align 1
  %21 = and i16 %20, 7
  %22 = zext nneg i16 %21 to i64
  %23 = getelementptr inbounds [8 x i32], ptr %15, i64 0, i64 %22
  %24 = load i32, ptr %23, align 4
  %25 = getelementptr inbounds nuw i8, ptr %11, i64 4
  store i32 %24, ptr %25, align 4
  %26 = getelementptr inbounds nuw i8, ptr %0, i64 10656
  %27 = load i32, ptr %26, align 16
  %28 = getelementptr inbounds nuw i8, ptr %11, i64 8
  store i32 %27, ptr %28, align 4
  %29 = getelementptr i8, ptr %0, i64 7960
  %.val.i = load ptr, ptr %29, align 8
  %30 = getelementptr i8, ptr %.val.i, i64 192
  %.val.val.i = load i32, ptr %30, align 8
  %31 = lshr i32 %.val.val.i, 3
  %.lobit.i.i = and i32 %31, 1
  %32 = getelementptr inbounds nuw i8, ptr %11, i64 12
  store i32 %.lobit.i.i, ptr %32, align 4
  %33 = and i16 %20, 128
  %.not.i.i = icmp eq i16 %33, 0
  br i1 %.not.i.i, label %34, label %is_inter_block.exit.i

34:                                               ; preds = %12
  %35 = getelementptr inbounds nuw i8, ptr %18, i64 16
  %36 = load i8, ptr %35, align 8
  %37 = icmp sgt i8 %36, 0
  %38 = zext i1 %37 to i32
  br label %is_inter_block.exit.i

is_inter_block.exit.i:                            ; preds = %34, %12
  %39 = phi i32 [ 1, %12 ], [ %38, %34 ]
  %40 = zext i8 %4 to i64
  %41 = shl nuw i64 1, %40
  %42 = and i64 %41, 399376
  %.not.i16.i = icmp eq i64 %42, 0
  br i1 %.not.i16.i, label %43, label %init_txfm_param.exit

43:                                               ; preds = %is_inter_block.exit.i
  %44 = and i64 %41, 99848
  %.not11.i.i = icmp eq i64 %44, 0
  br i1 %.not11.i.i, label %47, label %45

45:                                               ; preds = %43
  %46 = trunc nuw nsw i32 %39 to i8
  br label %init_txfm_param.exit

47:                                               ; preds = %43
  %.not12.i.i = icmp eq i32 %8, 0
  br i1 %.not12.i.i, label %50, label %48

48:                                               ; preds = %47
  %.not13.i.i = icmp eq i32 %39, 0
  %49 = select i1 %.not13.i.i, i8 2, i8 1
  br label %init_txfm_param.exit

50:                                               ; preds = %47
  %51 = zext nneg i32 %39 to i64
  %52 = lshr i64 394756, %40
  %53 = and i64 %52, 1
  %54 = getelementptr inbounds [2 x [2 x i8]], ptr @av1_ext_tx_set_lookup, i64 0, i64 %51, i64 %53
  %55 = load i8, ptr %54, align 1
  br label %init_txfm_param.exit

init_txfm_param.exit:                             ; preds = %is_inter_block.exit.i, %45, %48, %50
  %.0.i.i = phi i8 [ %46, %45 ], [ %49, %48 ], [ %55, %50 ], [ 0, %is_inter_block.exit.i ]
  %56 = getelementptr inbounds nuw i8, ptr %11, i64 16
  store i8 %.0.i.i, ptr %56, align 4
  %.not12 = icmp eq i32 %.lobit.i.i, 0
  br i1 %.not12, label %58, label %57

57:                                               ; preds = %init_txfm_param.exit
  call void @av1_highbd_inv_txfm_add_c(ptr noundef %1, ptr noundef %5, i32 noundef %6, ptr noundef nonnull %11)
  br label %81

58:                                               ; preds = %init_txfm_param.exit
  call void @llvm.lifetime.start.p0(i64 8192, ptr nonnull %10)
  %59 = getelementptr inbounds [19 x i32], ptr @tx_size_wide, i64 0, i64 %40
  %60 = load i32, ptr %59, align 4
  %61 = getelementptr inbounds [19 x i32], ptr @tx_size_high, i64 0, i64 %40
  %62 = load i32, ptr %61, align 4
  %smax.i = tail call i32 @llvm.smax.i32(i32 %60, i32 1)
  %63 = sext i32 %6 to i64
  %smax49.i = tail call i32 @llvm.smax.i32(i32 %62, i32 1)
  %wide.trip.count50.i = zext nneg i32 %smax49.i to i64
  %wide.trip.count.i = zext nneg i32 %smax.i to i64
  br label %.preheader35.us.i

.preheader35.us.i:                                ; preds = %._crit_edge.us.i, %58
  %indvars.iv46.i = phi i64 [ 0, %58 ], [ %indvars.iv.next47.i, %._crit_edge.us.i ]
  %64 = mul nsw i64 %indvars.iv46.i, %63
  %65 = shl nsw i64 %indvars.iv46.i, 6
  %invariant.gep.i = getelementptr i8, ptr %5, i64 %64
  br label %66

66:                                               ; preds = %66, %.preheader35.us.i
  %indvars.iv.i = phi i64 [ 0, %.preheader35.us.i ], [ %indvars.iv.next.i, %66 ]
  %gep.i = getelementptr i8, ptr %invariant.gep.i, i64 %indvars.iv.i
  %67 = load i8, ptr %gep.i, align 1
  %68 = zext i8 %67 to i16
  %69 = add nuw nsw i64 %indvars.iv.i, %65
  %70 = getelementptr inbounds [4096 x i16], ptr %10, i64 0, i64 %69
  store i16 %68, ptr %70, align 2
  %indvars.iv.next.i = add nuw nsw i64 %indvars.iv.i, 1
  %exitcond.not.i = icmp eq i64 %indvars.iv.next.i, %wide.trip.count.i
  br i1 %exitcond.not.i, label %._crit_edge.us.i, label %66, !llvm.loop !4

._crit_edge.us.i:                                 ; preds = %66
  %indvars.iv.next47.i = add nuw nsw i64 %indvars.iv46.i, 1
  %exitcond51.not.i = icmp eq i64 %indvars.iv.next47.i, %wide.trip.count50.i
  br i1 %exitcond51.not.i, label %.preheader.us.preheader.i, label %.preheader35.us.i, !llvm.loop !6

.preheader.us.preheader.i:                        ; preds = %._crit_edge.us.i
  %71 = ptrtoint ptr %10 to i64
  %72 = lshr exact i64 %71, 1
  %73 = inttoptr i64 %72 to ptr
  call void @av1_highbd_inv_txfm_add_c(ptr noundef %1, ptr noundef nonnull %73, i32 noundef 64, ptr noundef nonnull readonly %11)
  br label %.preheader.us.i

.preheader.us.i:                                  ; preds = %._crit_edge.us42.i, %.preheader.us.preheader.i
  %indvars.iv58.i = phi i64 [ 0, %.preheader.us.preheader.i ], [ %indvars.iv.next59.i, %._crit_edge.us42.i ]
  %74 = shl nsw i64 %indvars.iv58.i, 6
  %75 = mul nsw i64 %indvars.iv58.i, %63
  %invariant.gep64.i = getelementptr i8, ptr %5, i64 %75
  br label %76

76:                                               ; preds = %76, %.preheader.us.i
  %indvars.iv52.i = phi i64 [ 0, %.preheader.us.i ], [ %indvars.iv.next53.i, %76 ]
  %77 = add nuw nsw i64 %indvars.iv52.i, %74
  %78 = getelementptr inbounds [4096 x i16], ptr %10, i64 0, i64 %77
  %79 = load i16, ptr %78, align 2
  %80 = trunc i16 %79 to i8
  %gep65.i = getelementptr i8, ptr %invariant.gep64.i, i64 %indvars.iv52.i
  store i8 %80, ptr %gep65.i, align 1
  %indvars.iv.next53.i = add nuw nsw i64 %indvars.iv52.i, 1
  %exitcond57.not.i = icmp eq i64 %indvars.iv.next53.i, %wide.trip.count.i
  br i1 %exitcond57.not.i, label %._crit_edge.us42.i, label %76, !llvm.loop !7

._crit_edge.us42.i:                               ; preds = %76
  %indvars.iv.next59.i = add nuw nsw i64 %indvars.iv58.i, 1
  %exitcond63.not.i = icmp eq i64 %indvars.iv.next59.i, %wide.trip.count50.i
  br i1 %exitcond63.not.i, label %av1_inv_txfm_add_c.exit, label %.preheader.us.i, !llvm.loop !8

av1_inv_txfm_add_c.exit:                          ; preds = %._crit_edge.us42.i
  call void @llvm.lifetime.end.p0(i64 8192, ptr nonnull %10)
  br label %81

81:                                               ; preds = %9, %av1_inv_txfm_add_c.exit, %57
  ret void
}